
_interrupt:

;Timer_Interrupts_for_servos.c,14 :: 		void interrupt()
;Timer_Interrupts_for_servos.c,16 :: 		if (INTCON.f2 == 1) //si se desborda el timer y acciona la interrupcion
	BTFSS       INTCON+0, 2 
	GOTO        L_interrupt0
;Timer_Interrupts_for_servos.c,18 :: 		T0CON.f7 = 0;
	BCF         T0CON+0, 7 
;Timer_Interrupts_for_servos.c,19 :: 		INTCON.f2 = 0;
	BCF         INTCON+0, 2 
;Timer_Interrupts_for_servos.c,20 :: 		TMR0H   = 0x15;
	MOVLW       21
	MOVWF       TMR0H+0 
;Timer_Interrupts_for_servos.c,21 :: 		TMR0L   = 0xA0;
	MOVLW       160
	MOVWF       TMR0L+0 
;Timer_Interrupts_for_servos.c,22 :: 		LATB.f7 = !LATB.f7; //parpadea led verde "st"  indicando que esta ocurriendo la interrupcion
	BTG         LATB+0, 7 
;Timer_Interrupts_for_servos.c,24 :: 		ServoPin1 = 1;
	BSF         LATC+0, 5 
;Timer_Interrupts_for_servos.c,25 :: 		delay_us(600);
	MOVLW       10
	MOVWF       R12, 0
	MOVLW       88
	MOVWF       R13, 0
L_interrupt1:
	DECFSZ      R13, 1, 1
	BRA         L_interrupt1
	DECFSZ      R12, 1, 1
	BRA         L_interrupt1
	NOP
;Timer_Interrupts_for_servos.c,26 :: 		for(pulso = 0; pulso <= ServoC5; pulso++)
	CLRF        _pulso+0 
	CLRF        _pulso+1 
L_interrupt2:
	MOVLW       128
	XORWF       _ServoC5+1, 0 
	MOVWF       R0 
	MOVLW       128
	XORWF       _pulso+1, 0 
	SUBWF       R0, 0 
	BTFSS       STATUS+0, 2 
	GOTO        L__interrupt33
	MOVF        _pulso+0, 0 
	SUBWF       _ServoC5+0, 0 
L__interrupt33:
	BTFSS       STATUS+0, 0 
	GOTO        L_interrupt3
;Timer_Interrupts_for_servos.c,28 :: 		delay_us(9);
	MOVLW       35
	MOVWF       R13, 0
L_interrupt5:
	DECFSZ      R13, 1, 1
	BRA         L_interrupt5
	NOP
	NOP
;Timer_Interrupts_for_servos.c,26 :: 		for(pulso = 0; pulso <= ServoC5; pulso++)
	INFSNZ      _pulso+0, 1 
	INCF        _pulso+1, 1 
;Timer_Interrupts_for_servos.c,29 :: 		}
	GOTO        L_interrupt2
L_interrupt3:
;Timer_Interrupts_for_servos.c,30 :: 		ServoPin1 = 0;
	BCF         LATC+0, 5 
;Timer_Interrupts_for_servos.c,32 :: 		ServoPin2 = 1;
	BSF         LATC+0, 4 
;Timer_Interrupts_for_servos.c,33 :: 		delay_us(600);
	MOVLW       10
	MOVWF       R12, 0
	MOVLW       88
	MOVWF       R13, 0
L_interrupt6:
	DECFSZ      R13, 1, 1
	BRA         L_interrupt6
	DECFSZ      R12, 1, 1
	BRA         L_interrupt6
	NOP
;Timer_Interrupts_for_servos.c,34 :: 		for(pulso = 0; pulso <= ServoC4; pulso++)
	CLRF        _pulso+0 
	CLRF        _pulso+1 
L_interrupt7:
	MOVLW       128
	XORWF       _ServoC4+1, 0 
	MOVWF       R0 
	MOVLW       128
	XORWF       _pulso+1, 0 
	SUBWF       R0, 0 
	BTFSS       STATUS+0, 2 
	GOTO        L__interrupt34
	MOVF        _pulso+0, 0 
	SUBWF       _ServoC4+0, 0 
L__interrupt34:
	BTFSS       STATUS+0, 0 
	GOTO        L_interrupt8
;Timer_Interrupts_for_servos.c,36 :: 		delay_us(9);
	MOVLW       35
	MOVWF       R13, 0
L_interrupt10:
	DECFSZ      R13, 1, 1
	BRA         L_interrupt10
	NOP
	NOP
;Timer_Interrupts_for_servos.c,34 :: 		for(pulso = 0; pulso <= ServoC4; pulso++)
	INFSNZ      _pulso+0, 1 
	INCF        _pulso+1, 1 
;Timer_Interrupts_for_servos.c,37 :: 		}
	GOTO        L_interrupt7
L_interrupt8:
;Timer_Interrupts_for_servos.c,38 :: 		ServoPin2 = 0;
	BCF         LATC+0, 4 
;Timer_Interrupts_for_servos.c,40 :: 		T0CON.f7 = 1;
	BSF         T0CON+0, 7 
;Timer_Interrupts_for_servos.c,41 :: 		}
L_interrupt0:
;Timer_Interrupts_for_servos.c,42 :: 		}
L_end_interrupt:
L__interrupt32:
	RETFIE      1
; end of _interrupt

_main:

;Timer_Interrupts_for_servos.c,46 :: 		void main()
;Timer_Interrupts_for_servos.c,48 :: 		TRISA= 0b00001000;
	MOVLW       8
	MOVWF       TRISA+0 
;Timer_Interrupts_for_servos.c,49 :: 		TRISB= 0b00000000;
	CLRF        TRISB+0 
;Timer_Interrupts_for_servos.c,50 :: 		TRISC= 0b00000000;
	CLRF        TRISC+0 
;Timer_Interrupts_for_servos.c,52 :: 		LATA = 0;
	CLRF        LATA+0 
;Timer_Interrupts_for_servos.c,53 :: 		LATB = 0;
	CLRF        LATB+0 
;Timer_Interrupts_for_servos.c,54 :: 		LATC = 0;
	CLRF        LATC+0 
;Timer_Interrupts_for_servos.c,56 :: 		T0CON = 0b00000001;
	MOVLW       1
	MOVWF       T0CON+0 
;Timer_Interrupts_for_servos.c,57 :: 		TMR0H   = 0x15;
	MOVLW       21
	MOVWF       TMR0H+0 
;Timer_Interrupts_for_servos.c,58 :: 		TMR0L   = 0xA0;
	MOVLW       160
	MOVWF       TMR0L+0 
;Timer_Interrupts_for_servos.c,59 :: 		INTCON = 0b11100000;
	MOVLW       224
	MOVWF       INTCON+0 
;Timer_Interrupts_for_servos.c,60 :: 		RCON.f7 = 0;
	BCF         RCON+0, 7 
;Timer_Interrupts_for_servos.c,61 :: 		T0CON.f7 = 1;
	BSF         T0CON+0, 7 
;Timer_Interrupts_for_servos.c,63 :: 		while(1)
L_main11:
;Timer_Interrupts_for_servos.c,65 :: 		if (PORTA.f3 == 0) //este if verifica si el boton se presiona
	BTFSC       PORTA+0, 3 
	GOTO        L_main13
;Timer_Interrupts_for_servos.c,67 :: 		asm goto 0x30   //saltar al bootloader para reprogramacion
	GOTO        48
;Timer_Interrupts_for_servos.c,68 :: 		}
L_main13:
;Timer_Interrupts_for_servos.c,69 :: 		delay_ms(100);
	MOVLW       7
	MOVWF       R11, 0
	MOVLW       23
	MOVWF       R12, 0
	MOVLW       106
	MOVWF       R13, 0
L_main14:
	DECFSZ      R13, 1, 1
	BRA         L_main14
	DECFSZ      R12, 1, 1
	BRA         L_main14
	DECFSZ      R11, 1, 1
	BRA         L_main14
	NOP
;Timer_Interrupts_for_servos.c,71 :: 		for(i = 0; i<=180;i++)
	CLRF        _i+0 
	CLRF        _i+1 
L_main15:
	MOVLW       128
	MOVWF       R0 
	MOVLW       128
	XORWF       _i+1, 0 
	SUBWF       R0, 0 
	BTFSS       STATUS+0, 2 
	GOTO        L__main36
	MOVF        _i+0, 0 
	SUBLW       180
L__main36:
	BTFSS       STATUS+0, 0 
	GOTO        L_main16
;Timer_Interrupts_for_servos.c,73 :: 		ServoC5 = i;
	MOVF        _i+0, 0 
	MOVWF       _ServoC5+0 
	MOVF        _i+1, 0 
	MOVWF       _ServoC5+1 
;Timer_Interrupts_for_servos.c,74 :: 		delay_ms(1);
	MOVLW       16
	MOVWF       R12, 0
	MOVLW       148
	MOVWF       R13, 0
L_main18:
	DECFSZ      R13, 1, 1
	BRA         L_main18
	DECFSZ      R12, 1, 1
	BRA         L_main18
	NOP
;Timer_Interrupts_for_servos.c,71 :: 		for(i = 0; i<=180;i++)
	INFSNZ      _i+0, 1 
	INCF        _i+1, 1 
;Timer_Interrupts_for_servos.c,75 :: 		}
	GOTO        L_main15
L_main16:
;Timer_Interrupts_for_servos.c,77 :: 		for(i = 0; i<=180;i++)
	CLRF        _i+0 
	CLRF        _i+1 
L_main19:
	MOVLW       128
	MOVWF       R0 
	MOVLW       128
	XORWF       _i+1, 0 
	SUBWF       R0, 0 
	BTFSS       STATUS+0, 2 
	GOTO        L__main37
	MOVF        _i+0, 0 
	SUBLW       180
L__main37:
	BTFSS       STATUS+0, 0 
	GOTO        L_main20
;Timer_Interrupts_for_servos.c,79 :: 		ServoC4 = i;
	MOVF        _i+0, 0 
	MOVWF       _ServoC4+0 
	MOVF        _i+1, 0 
	MOVWF       _ServoC4+1 
;Timer_Interrupts_for_servos.c,80 :: 		delay_ms(20);
	MOVLW       2
	MOVWF       R11, 0
	MOVLW       56
	MOVWF       R12, 0
	MOVLW       173
	MOVWF       R13, 0
L_main22:
	DECFSZ      R13, 1, 1
	BRA         L_main22
	DECFSZ      R12, 1, 1
	BRA         L_main22
	DECFSZ      R11, 1, 1
	BRA         L_main22
;Timer_Interrupts_for_servos.c,77 :: 		for(i = 0; i<=180;i++)
	INFSNZ      _i+0, 1 
	INCF        _i+1, 1 
;Timer_Interrupts_for_servos.c,81 :: 		}
	GOTO        L_main19
L_main20:
;Timer_Interrupts_for_servos.c,83 :: 		for(i = 180; i>=0;i--)
	MOVLW       180
	MOVWF       _i+0 
	MOVLW       0
	MOVWF       _i+1 
L_main23:
	MOVLW       128
	XORWF       _i+1, 0 
	MOVWF       R0 
	MOVLW       128
	SUBWF       R0, 0 
	BTFSS       STATUS+0, 2 
	GOTO        L__main38
	MOVLW       0
	SUBWF       _i+0, 0 
L__main38:
	BTFSS       STATUS+0, 0 
	GOTO        L_main24
;Timer_Interrupts_for_servos.c,85 :: 		ServoC5 = i;
	MOVF        _i+0, 0 
	MOVWF       _ServoC5+0 
	MOVF        _i+1, 0 
	MOVWF       _ServoC5+1 
;Timer_Interrupts_for_servos.c,86 :: 		delay_ms(1);
	MOVLW       16
	MOVWF       R12, 0
	MOVLW       148
	MOVWF       R13, 0
L_main26:
	DECFSZ      R13, 1, 1
	BRA         L_main26
	DECFSZ      R12, 1, 1
	BRA         L_main26
	NOP
;Timer_Interrupts_for_servos.c,83 :: 		for(i = 180; i>=0;i--)
	MOVLW       1
	SUBWF       _i+0, 1 
	MOVLW       0
	SUBWFB      _i+1, 1 
;Timer_Interrupts_for_servos.c,87 :: 		}
	GOTO        L_main23
L_main24:
;Timer_Interrupts_for_servos.c,89 :: 		for(i = 180; i>=0;i--)
	MOVLW       180
	MOVWF       _i+0 
	MOVLW       0
	MOVWF       _i+1 
L_main27:
	MOVLW       128
	XORWF       _i+1, 0 
	MOVWF       R0 
	MOVLW       128
	SUBWF       R0, 0 
	BTFSS       STATUS+0, 2 
	GOTO        L__main39
	MOVLW       0
	SUBWF       _i+0, 0 
L__main39:
	BTFSS       STATUS+0, 0 
	GOTO        L_main28
;Timer_Interrupts_for_servos.c,91 :: 		ServoC4 = i;
	MOVF        _i+0, 0 
	MOVWF       _ServoC4+0 
	MOVF        _i+1, 0 
	MOVWF       _ServoC4+1 
;Timer_Interrupts_for_servos.c,92 :: 		delay_ms(20);
	MOVLW       2
	MOVWF       R11, 0
	MOVLW       56
	MOVWF       R12, 0
	MOVLW       173
	MOVWF       R13, 0
L_main30:
	DECFSZ      R13, 1, 1
	BRA         L_main30
	DECFSZ      R12, 1, 1
	BRA         L_main30
	DECFSZ      R11, 1, 1
	BRA         L_main30
;Timer_Interrupts_for_servos.c,89 :: 		for(i = 180; i>=0;i--)
	MOVLW       1
	SUBWF       _i+0, 1 
	MOVLW       0
	SUBWFB      _i+1, 1 
;Timer_Interrupts_for_servos.c,93 :: 		}
	GOTO        L_main27
L_main28:
;Timer_Interrupts_for_servos.c,96 :: 		}
	GOTO        L_main11
;Timer_Interrupts_for_servos.c,97 :: 		}
L_end_main:
	GOTO        $+0
; end of _main

_bootInterrupt:

;Timer_Interrupts_for_servos.c,99 :: 		void bootInterrupt()    //tabla de saltos para poder activar interrupciones usando un bootloader, manda llamar interrupciones y al main segun correponda
;Timer_Interrupts_for_servos.c,102 :: 		goto _main
	GOTO        _main+0
;Timer_Interrupts_for_servos.c,103 :: 		goto 0
	GOTO        0
;Timer_Interrupts_for_servos.c,104 :: 		goto _interrupt
	GOTO        _interrupt+0
;Timer_Interrupts_for_servos.c,106 :: 		}
L_end_bootInterrupt:
	RETURN      0
; end of _bootInterrupt
